; Function Attrs: nounwind uwtable
define internal range(i32 0, 2) i32 @sync(ptr noundef readonly captures(none) %0) #4 {
  %2 = load ptr, ptr %0, align 8
  %3 = icmp eq ptr %2, null
  br i1 %3, label %change_state.exit, label %4

4:                                                ; preds = %1
  %5 = tail call i32 @pthread_mutex_lock(ptr noundef nonnull %2) #10
  %6 = getelementptr inbounds nuw i8, ptr %0, i64 8
  %7 = load i32, ptr %6, align 8
  %switch = icmp ult i32 %7, 2
  br i1 %switch, label %._crit_edge.i, label %.lr.ph.i

.lr.ph.i:                                         ; preds = %4, %.lr.ph.i
  %8 = load ptr, ptr %0, align 8
  %9 = getelementptr inbounds nuw i8, ptr %8, i64 40
  %10 = tail call i32 @pthread_cond_wait(ptr noundef nonnull %9, ptr noundef %8) #10
  %.pr.i = load i32, ptr %6, align 8
  %.not11.i = icmp eq i32 %.pr.i, 1
  br i1 %.not11.i, label %._crit_edge.i, label %.lr.ph.i, !llvm.loop !4

._crit_edge.i:                                    ; preds = %.lr.ph.i, %4
  %11 = load ptr, ptr %0, align 8
  %12 = tail call i32 @pthread_mutex_unlock(ptr noundef %11) #10
  br label %change_state.exit

change_state.exit:                                ; preds = %1, %._crit_edge.i
  %13 = getelementptr inbounds nuw i8, ptr %0, i64 48
  %14 = load i32, ptr %13, align 8
  %.not = icmp eq i32 %14, 0
  %15 = zext i1 %.not to i32
  ret i32 %15
}